; Function Attrs: mustprogress nofree norecurse nosync nounwind willreturn memory(argmem: write) uwtable
define void @png_set_mem_fn(ptr noalias noundef writeonly captures(address_is_null) %0, ptr noundef %1, ptr noundef %2, ptr noundef %3) local_unnamed_addr #9 {
  %.not = icmp eq ptr %0, null
  br i1 %.not, label %9, label %5

5:                                                ; preds = %4
  %6 = getelementptr inbounds nuw i8, ptr %0, i64 1056
  store ptr %1, ptr %6, align 8, !tbaa !59
  %7 = getelementptr inbounds nuw i8, ptr %0, i64 1064
  store ptr %2, ptr %7, align 8, !tbaa !37
  %8 = getelementptr inbounds nuw i8, ptr %0, i64 1072
  store ptr %3, ptr %8, align 8, !tbaa !27
  br label %9

9:                                                ; preds = %5, %4
  ret void
}